target datalayout = "e-m:e-p270:32:32-p271:32:32-p272:64:64-i64:64-i128:128-f80:128-n8:16:32:64-S128"
target triple = "x86_64-pc-linux-gnu"

%struct.ossl_qrx_st = type { ptr, ptr, ptr, i64, i64, i64, %struct.ossl_list_st_urxe, %struct.ossl_list_st_urxe, %struct.ossl_list_st_rxe, %struct.ossl_list_st_rxe, [3 x i64], %struct.ossl_qrl_enc_level_set_st, i64, i64, i64, ptr, ptr, ptr, ptr, i8, i8, ptr, ptr, ptr }
%struct.ossl_list_st_urxe = type { ptr, ptr, i64 }
%struct.ossl_list_st_rxe = type { ptr, ptr, i64 }
%struct.ossl_qrl_enc_level_set_st = type { [4 x %struct.ossl_qrl_enc_level_st] }
%struct.ossl_qrl_enc_level_st = type { %struct.quic_hdr_protector_st, ptr, [2 x ptr], ptr, ptr, i64, i64, i32, i32, i8, i8, [2 x [16 x i8]], [64 x i8] }
%struct.quic_hdr_protector_st = type { ptr, ptr, ptr, ptr, i32 }

; Function Attrs: nounwind uwtable
define i32 @ossl_qrx_discard_enc_level(ptr noundef %0, i32 noundef %1) #0 {
  %3 = alloca i32, align 4
  %4 = alloca ptr, align 8
  %5 = alloca i32, align 4
  store ptr %0, ptr %4, align 8, !tbaa !15
  store i32 %1, ptr %5, align 4, !tbaa !37
  %6 = load i32, ptr %5, align 4, !tbaa !37
  %7 = icmp uge i32 %6, 4
  br i1 %7, label %8, label %9

8:                                                ; preds = %2
  store i32 0, ptr %3, align 4
  br label %13

9:                                                ; preds = %2
  %10 = load ptr, ptr %4, align 8, !tbaa !15
  %11 = getelementptr inbounds nuw %struct.ossl_qrx_st, ptr %10, i32 0, i32 11
  %12 = load i32, ptr %5, align 4, !tbaa !37
  call void @ossl_qrl_enc_level_set_discard(ptr noundef %11, i32 noundef %12)
  store i32 1, ptr %3, align 4
  br label %13

13:                                               ; preds = %9, %8
  %14 = load i32, ptr %3, align 4
  ret i32 %14
}